; Function Attrs: nounwind uwtable
define range(i32 -12, 1) i32 @ff_set_common_color_ranges_from_list2(ptr noundef readonly captures(none) %0, ptr noundef readonly captures(none) %1, ptr noundef readonly captures(none) %2, ptr noundef readonly captures(address_is_null) %3) local_unnamed_addr #3 {
  %5 = alloca ptr, align 8
  call void @llvm.lifetime.start.p0(i64 8, ptr nonnull %5) #10
  %.not.i = icmp eq ptr %3, null
  br i1 %.not.i, label %.loopexit.i, label %.preheader.i

.preheader.i:                                     ; preds = %4, %.preheader.i
  %indvars.iv.i = phi i64 [ %indvars.iv.next.i, %.preheader.i ], [ 0, %4 ]
  %6 = getelementptr inbounds nuw i32, ptr %3, i64 %indvars.iv.i
  %7 = load i32, ptr %6, align 4, !tbaa !19
  %.not14.i = icmp eq i32 %7, -1
  %indvars.iv.next.i = add nuw nsw i64 %indvars.iv.i, 1
  br i1 %.not14.i, label %.loopexit.loopexit.i, label %.preheader.i, !llvm.loop !22

.loopexit.loopexit.i:                             ; preds = %.preheader.i
  %8 = trunc nuw nsw i64 %indvars.iv.i to i32
  br label %.loopexit.i

.loopexit.i:                                      ; preds = %.loopexit.loopexit.i, %4
  %.0.i = phi i32 [ 0, %4 ], [ %8, %.loopexit.loopexit.i ]
  %9 = tail call noalias ptr @av_mallocz(i64 noundef 32) #10
  store ptr %9, ptr %5, align 8, !tbaa !23
  %.not15.i = icmp eq ptr %9, null
  br i1 %.not15.i, label %ff_make_format_list.exit, label %10

10:                                               ; preds = %.loopexit.i
  store i32 %.0.i, ptr %9, align 8, !tbaa !24
  %cond.i = icmp eq i32 %.0.i, 0
  br i1 %cond.i, label %ff_make_format_list.exit, label %11

11:                                               ; preds = %10
  %12 = zext nneg i32 %.0.i to i64
  %13 = tail call ptr @av_malloc_array(i64 noundef %12, i64 noundef 4) #10
  %14 = getelementptr inbounds nuw i8, ptr %9, i64 8
  store ptr %13, ptr %14, align 8, !tbaa !29
  %.not17.i = icmp eq ptr %13, null
  br i1 %.not17.i, label %15, label %.lr.ph.i

15:                                               ; preds = %11
  call void @av_freep(ptr noundef nonnull %5) #10
  br label %ff_make_format_list.exit

.lr.ph.i:                                         ; preds = %11, %.lr.ph.i
  %indvars.iv23.i = phi i64 [ %indvars.iv.next24.i, %.lr.ph.i ], [ %12, %11 ]
  %indvars.iv.next24.i = add nsw i64 %indvars.iv23.i, -1
  %16 = getelementptr inbounds i32, ptr %3, i64 %indvars.iv.next24.i
  %17 = load i32, ptr %16, align 4, !tbaa !19
  %18 = getelementptr inbounds i32, ptr %13, i64 %indvars.iv.next24.i
  store i32 %17, ptr %18, align 4, !tbaa !19
  %19 = icmp eq i64 %indvars.iv.next24.i, 0
  br i1 %19, label %ff_make_format_list.exit, label %.lr.ph.i, !llvm.loop !30

ff_make_format_list.exit:                         ; preds = %.lr.ph.i, %.loopexit.i, %10, %15
  %.011.i = phi ptr [ null, %15 ], [ null, %.loopexit.i ], [ %9, %10 ], [ %9, %.lr.ph.i ]
  call void @llvm.lifetime.end.p0(i64 8, ptr nonnull %5) #10
  %20 = call i32 @ff_set_common_color_ranges2(ptr noundef %0, ptr noundef %1, ptr noundef %2, ptr noundef %.011.i)
  ret i32 %20
}